ccopy_reg
_reconstructor
p0
(cheppy.statistics.counter
Counter
p1
c__builtin__
list
p2
(lp3
(lp4
S'All events'
p5
aI33986
aa(lp6
S'2 or more photons'
p7
aI33986
aa(lp8
S'2 or more photons with E > 40 GeV'
p9
aI33986
aa(lp10
S'isolated photons'
p11
aI33975
aa(lp12
S'photon eta < 1.8'
p13
aI24444
aa(lp14
S'Higgs phi < 25 deg'
p15
aI23574
aatp16
Rp17
(dp18
S'name'
p19
S'cut_flow'
p20
sS'dico'
p21
(dp22
g9
I2
sg7
I1
sg13
I4
sg5
I0
sg15
I5
sg11
I3
ssb.