ccopy_reg
_reconstructor
p0
(cheppy.statistics.counter
Counter
p1
c__builtin__
list
p2
(lp3
(lp4
S'All events'
p5
aI39350
aa(lp6
S'2 or more photons'
p7
aI38473
aa(lp8
S'2 or more photons with E > 40 GeV'
p9
aI36465
aa(lp10
S'isolated photons'
p11
aI34957
aa(lp12
S'eta < 1.8'
p13
aI25093
aatp14
Rp15
(dp16
S'name'
p17
S'cut_flow'
p18
sS'dico'
p19
(dp20
g11
I3
sg5
I0
sg9
I2
sg7
I1
sg13
I4
ssb.