ccopy_reg
_reconstructor
p0
(cheppy.statistics.counter
Counter
p1
c__builtin__
list
p2
(lp3
(lp4
S'All events'
p5
aI988
aa(lp6
S'2 or more photons'
p7
aI962
aa(lp8
S'2 or more photons with E > 40 GeV'
p9
aI921
aa(lp10
S'isolated photons'
p11
aI914
aa(lp12
S'eta < 1.8'
p13
aI646
aa(lp14
S'No Z decays to neutrinos'
p15
aI516
aatp16
Rp17
(dp18
S'name'
p19
S'cut_flow'
p20
sS'dico'
p21
(dp22
g9
I2
sg7
I1
sg5
I0
sg13
I4
sg11
I3
sg15
I5
ssb.